; Function Attrs: nounwind uwtable
define i32 @SSL_net_write_desired(ptr noundef %0) local_unnamed_addr #0 {
  %.not = icmp eq ptr %0, null
  br i1 %.not, label %.split, label %2

2:                                                ; preds = %1
  %3 = load i32, ptr %0, align 8, !tbaa !19
  %4 = and i32 %3, 128
  %.not6 = icmp eq i32 %4, 0
  br i1 %.not6, label %.split4, label %10

.split4:                                          ; preds = %2
  %5 = icmp eq i32 %3, 0
  br i1 %5, label %.thread19.i, label %.split

.thread19.i:                                      ; preds = %.split4
  %6 = getelementptr inbounds nuw i8, ptr %0, i64 104
  %7 = load i32, ptr %6, align 8, !tbaa !85
  %8 = icmp eq i32 %7, 2
  %9 = zext i1 %8 to i32
  br label %.split

10:                                               ; preds = %2
  %11 = tail call i32 @ossl_quic_get_net_write_desired(ptr noundef nonnull %0) #20
  br label %.split

.split:                                           ; preds = %1, %.thread19.i, %.split4, %10
  %.0 = phi i32 [ %11, %10 ], [ 0, %1 ], [ %9, %.thread19.i ], [ 0, %.split4 ]
  ret i32 %.0
}